; ModuleID = '27/1270.c'
source_filename = "27/1270.c"
target datalayout = "e-m:e-p270:32:32-p271:32:32-p272:64:64-i64:64-f80:128-n8:16:32:64-S128"
target triple = "x86_64-pc-linux-gnu"

@.str = private unnamed_addr constant [3 x i8] c"%d\00", align 1
@.str.1 = private unnamed_addr constant [10 x i8] c"%lf%lf%lf\00", align 1
@.str.2 = private unnamed_addr constant [17 x i8] c"x1=%.5f;x2=%.5f\0A\00", align 1
@.str.3 = private unnamed_addr constant [12 x i8] c"x1=x2=%.5f\0A\00", align 1
@.str.4 = private unnamed_addr constant [15 x i8] c"x1=%.5f+%.5fi;\00", align 1
@.str.5 = private unnamed_addr constant [15 x i8] c"x2=%.5f-%.5fi\0A\00", align 1

; Function Attrs: noinline nounwind uwtable
define dso_local i32 @main() #0 {
  %1 = alloca i32, align 4
  %2 = alloca i32, align 4
  %3 = alloca i32, align 4
  %4 = alloca double, align 8
  %5 = alloca double, align 8
  %6 = alloca double, align 8
  %7 = alloca double, align 8
  %8 = alloca double, align 8
  %9 = alloca double, align 8
  %10 = alloca double, align 8
  %11 = alloca double, align 8
  store i32 0, i32* %1, align 4
  %12 = call i32 (i8*, ...) @__isoc99_scanf(i8* getelementptr inbounds ([3 x i8], [3 x i8]* @.str, i64 0, i64 0), i32* %2)
  store i32 1, i32* %3, align 4
  br label %13

13:                                               ; preds = %109, %0
  %14 = load i32, i32* %3, align 4
  %15 = load i32, i32* %2, align 4
  %16 = icmp sle i32 %14, %15
  br i1 %16, label %17, label %112

17:                                               ; preds = %13
  %18 = call i32 (i8*, ...) @__isoc99_scanf(i8* getelementptr inbounds ([10 x i8], [10 x i8]* @.str.1, i64 0, i64 0), double* %4, double* %5, double* %6)
  %19 = load double, double* %5, align 8
  %20 = load double, double* %5, align 8
  %21 = fmul double %19, %20
  %22 = load double, double* %4, align 8
  %23 = fmul double 4.000000e+00, %22
  %24 = load double, double* %6, align 8
  %25 = fmul double %23, %24
  %26 = fsub double %21, %25
  store double %26, double* %9, align 8
  %27 = load double, double* %9, align 8
  %28 = fcmp ogt double %27, 0.000000e+00
  br i1 %28, label %29, label %63

29:                                               ; preds = %17
  %30 = load double, double* %5, align 8
  %31 = fneg double %30
  %32 = load double, double* %5, align 8
  %33 = load double, double* %5, align 8
  %34 = fmul double %32, %33
  %35 = load double, double* %4, align 8
  %36 = fmul double 4.000000e+00, %35
  %37 = load double, double* %6, align 8
  %38 = fmul double %36, %37
  %39 = fsub double %34, %38
  %40 = call double @sqrt(double %39) #3
  %41 = fadd double %31, %40
  %42 = load double, double* %4, align 8
  %43 = fmul double 2.000000e+00, %42
  %44 = fdiv double %41, %43
  store double %44, double* %7, align 8
  %45 = load double, double* %5, align 8
  %46 = fneg double %45
  %47 = load double, double* %5, align 8
  %48 = load double, double* %5, align 8
  %49 = fmul double %47, %48
  %50 = load double, double* %4, align 8
  %51 = fmul double 4.000000e+00, %50
  %52 = load double, double* %6, align 8
  %53 = fmul double %51, %52
  %54 = fsub double %49, %53
  %55 = call double @sqrt(double %54) #3
  %56 = fsub double %46, %55
  %57 = load double, double* %4, align 8
  %58 = fmul double 2.000000e+00, %57
  %59 = fdiv double %56, %58
  store double %59, double* %8, align 8
  %60 = load double, double* %7, align 8
  %61 = load double, double* %8, align 8
  %62 = call i32 (i8*, ...) @printf(i8* getelementptr inbounds ([17 x i8], [17 x i8]* @.str.2, i64 0, i64 0), double %60, double %61)
  br label %63

63:                                               ; preds = %29, %17
  %64 = load double, double* %9, align 8
  %65 = fcmp oeq double %64, 0.000000e+00
  br i1 %65, label %66, label %74

66:                                               ; preds = %63
  %67 = load double, double* %5, align 8
  %68 = fneg double %67
  %69 = load double, double* %4, align 8
  %70 = fmul double 2.000000e+00, %69
  %71 = fdiv double %68, %70
  store double %71, double* %7, align 8
  %72 = load double, double* %7, align 8
  %73 = call i32 (i8*, ...) @printf(i8* getelementptr inbounds ([12 x i8], [12 x i8]* @.str.3, i64 0, i64 0), double %72)
  br label %74

74:                                               ; preds = %66, %63
  %75 = load double, double* %9, align 8
  %76 = fcmp olt double %75, 0.000000e+00
  br i1 %76, label %77, label %108

77:                                               ; preds = %74
  %78 = load double, double* %5, align 8
  %79 = fneg double %78
  %80 = load double, double* %4, align 8
  %81 = fmul double 2.000000e+00, %80
  %82 = fdiv double %79, %81
  store double %82, double* %10, align 8
  %83 = load double, double* %9, align 8
  %84 = fneg double %83
  %85 = call double @sqrt(double %84) #3
  %86 = load double, double* %4, align 8
  %87 = fmul double 2.000000e+00, %86
  %88 = fdiv double %85, %87
  store double %88, double* %11, align 8
  %89 = load double, double* %5, align 8
  %90 = fcmp oeq double %89, 0.000000e+00
  br i1 %90, label %91, label %100

91:                                               ; preds = %77
  %92 = load double, double* %10, align 8
  %93 = fneg double %92
  %94 = load double, double* %11, align 8
  %95 = call i32 (i8*, ...) @printf(i8* getelementptr inbounds ([15 x i8], [15 x i8]* @.str.4, i64 0, i64 0), double %93, double %94)
  %96 = load double, double* %10, align 8
  %97 = fneg double %96
  %98 = load double, double* %11, align 8
  %99 = call i32 (i8*, ...) @printf(i8* getelementptr inbounds ([15 x i8], [15 x i8]* @.str.5, i64 0, i64 0), double %97, double %98)
  br label %107

100:                                              ; preds = %77
  %101 = load double, double* %10, align 8
  %102 = load double, double* %11, align 8
  %103 = call i32 (i8*, ...) @printf(i8* getelementptr inbounds ([15 x i8], [15 x i8]* @.str.4, i64 0, i64 0), double %101, double %102)
  %104 = load double, double* %10, align 8
  %105 = load double, double* %11, align 8
  %106 = call i32 (i8*, ...) @printf(i8* getelementptr inbounds ([15 x i8], [15 x i8]* @.str.5, i64 0, i64 0), double %104, double %105)
  br label %107

107:                                              ; preds = %100, %91
  br label %108

108:                                              ; preds = %107, %74
  br label %109

109:                                              ; preds = %108
  %110 = load i32, i32* %3, align 4
  %111 = add nsw i32 %110, 1
  store i32 %111, i32* %3, align 4
  br label %13

112:                                              ; preds = %13
  ret i32 0
}

declare dso_local i32 @__isoc99_scanf(i8*, ...) #1

; Function Attrs: nounwind
declare dso_local double @sqrt(double) #2

declare dso_local i32 @printf(i8*, ...) #1


!llvm.module.flags = !{!0}
!llvm.ident = !{!1}

!0 = !{i32 1, !"wchar_size", i32 4}
!1 = !{!"clang version 10.0.0-4ubuntu1 "}
